target datalayout = "e-m:e-p270:32:32-p271:32:32-p272:64:64-i64:64-i128:128-f80:128-n8:16:32:64-S128"
target triple = "x86_64-pc-linux-gnu"

%"struct.btInverseDynamicsBullet3::RigidBody" = type { float, %"class.btInverseDynamicsBullet3::vec3", %"class.btInverseDynamicsBullet3::mat33", %"class.btInverseDynamicsBullet3::vec3", %"class.btInverseDynamicsBullet3::vec3", %"class.btInverseDynamicsBullet3::vec3", %"class.btInverseDynamicsBullet3::vec3", %"class.btInverseDynamicsBullet3::vec3", %"class.btInverseDynamicsBullet3::vec3", %"class.btInverseDynamicsBullet3::vec3", %"class.btInverseDynamicsBullet3::vec3", %"class.btInverseDynamicsBullet3::vec3", %"class.btInverseDynamicsBullet3::vec3", %"class.btInverseDynamicsBullet3::vec3", %"class.btInverseDynamicsBullet3::mat33", %"class.btInverseDynamicsBullet3::mat33", %"class.btInverseDynamicsBullet3::vec3", %"class.btInverseDynamicsBullet3::vec3", %"class.btInverseDynamicsBullet3::vec3", %"class.btInverseDynamicsBullet3::vec3", %"class.btInverseDynamicsBullet3::vec3", i32, %"class.btInverseDynamicsBullet3::vec3", %"class.btInverseDynamicsBullet3::mat33", %"class.btInverseDynamicsBullet3::vec3", %"class.btInverseDynamicsBullet3::vec3", %"class.btInverseDynamicsBullet3::vec3", i32, float, %"class.btInverseDynamicsBullet3::vec3", %"class.btInverseDynamicsBullet3::mat33", %"class.btInverseDynamicsBullet3::mat3x", %"class.btInverseDynamicsBullet3::mat3x", %"class.btInverseDynamicsBullet3::vec3", %"class.btInverseDynamicsBullet3::vec3" }
%"class.btInverseDynamicsBullet3::mat33" = type { %class.btMatrix3x3 }
%class.btMatrix3x3 = type { [3 x %class.btVector3] }
%class.btVector3 = type { [4 x float] }
%"class.btInverseDynamicsBullet3::mat3x" = type { %struct.btMatrixX }
%struct.btMatrixX = type { i32, i32, i32, i32, i32, [4 x i8], %class.btAlignedObjectArray, %class.btAlignedObjectArray.6 }
%class.btAlignedObjectArray = type <{ [4 x i8], i32, i32, [4 x i8], ptr, i8, [7 x i8] }>
%class.btAlignedObjectArray.6 = type <{ [4 x i8], i32, i32, [4 x i8], ptr, i8, [7 x i8] }>
%"class.btInverseDynamicsBullet3::vec3" = type { %class.btVector3 }
%class.b3AlignedObjectArray.0 = type <{ [4 x i8], i32, i32, [4 x i8], ptr, i8, [7 x i8] }>
%"class.btInverseDynamicsBullet3::MultiBodyTree::MultiBodyImpl" = type { i32, i32, %"class.btInverseDynamicsBullet3::vec3", %class.b3AlignedObjectArray, %class.b3AlignedObjectArray.0, %class.b3AlignedObjectArray.2, %class.b3AlignedObjectArray.0, %class.b3AlignedObjectArray.0, %class.b3AlignedObjectArray.0, %class.b3AlignedObjectArray.0, %class.b3AlignedObjectArray.0, %class.b3AlignedObjectArray.4, %"class.btInverseDynamicsBullet3::mat3x" }
%class.b3AlignedObjectArray = type <{ [4 x i8], i32, i32, [4 x i8], ptr, i8, [7 x i8] }>
%class.b3AlignedObjectArray.2 = type <{ [4 x i8], i32, i32, [4 x i8], ptr, i8, [7 x i8] }>
%class.b3AlignedObjectArray.4 = type <{ [4 x i8], i32, i32, [4 x i8], ptr, i8, [7 x i8] }>

@.str = private unnamed_addr constant [6 x i8] c"fixed\00", align 1
@.str.1 = private unnamed_addr constant [9 x i8] c"revolute\00", align 1
@.str.2 = private unnamed_addr constant [10 x i8] c"prismatic\00", align 1
@.str.3 = private unnamed_addr constant [9 x i8] c"floating\00", align 1
@.str.4 = private unnamed_addr constant [10 x i8] c"spherical\00", align 1
@.str.5 = private unnamed_addr constant [15 x i8] c"error: invalid\00", align 1
@.str.6 = private unnamed_addr constant [21 x i8] c"body %.2d[%s]: root\0A\00", align 1

; Function Attrs: mustprogress nounwind uwtable
define dso_local noundef ptr @_ZNK24btInverseDynamicsBullet313MultiBodyTree13MultiBodyImpl17jointTypeToStringERKNS_9JointTypeE(ptr noundef nonnull align 8 dereferenceable(400) %0, ptr noundef nonnull align 4 dereferenceable(4) %1) #1 align 2 {
  %3 = alloca ptr, align 8
  %4 = alloca ptr, align 8
  %5 = alloca ptr, align 8
  store ptr %0, ptr %4, align 8, !tbaa !12
  store ptr %1, ptr %5, align 8, !tbaa !39
  %6 = load ptr, ptr %5, align 8, !tbaa !39
  %7 = load i32, ptr %6, align 4, !tbaa !74
  switch i32 %7, label %13 [
    i32 0, label %8
    i32 1, label %9
    i32 2, label %10
    i32 3, label %11
    i32 4, label %12
  ]

8:                                                ; preds = %2
  store ptr @.str, ptr %3, align 8
  br label %14

9:                                                ; preds = %2
  store ptr @.str.1, ptr %3, align 8
  br label %14

10:                                               ; preds = %2
  store ptr @.str.2, ptr %3, align 8
  br label %14

11:                                               ; preds = %2
  store ptr @.str.3, ptr %3, align 8
  br label %14

12:                                               ; preds = %2
  store ptr @.str.4, ptr %3, align 8
  br label %14

13:                                               ; preds = %2
  store ptr @.str.5, ptr %3, align 8
  br label %14

14:                                               ; preds = %13, %12, %11, %10, %9, %8
  %15 = load ptr, ptr %3, align 8
  ret ptr %15
}

; Function Attrs: inlinehint mustprogress nounwind uwtable
define linkonce_odr dso_local noundef nonnull align 8 dereferenceable(816) ptr @_ZN20b3AlignedObjectArrayIN24btInverseDynamicsBullet39RigidBodyEEixEi(ptr noundef nonnull align 8 dereferenceable(25) %0, i32 noundef %1) #6 comdat align 2 {
  %3 = alloca ptr, align 8
  %4 = alloca i32, align 4
  store ptr %0, ptr %3, align 8, !tbaa !44
  store i32 %1, ptr %4, align 4, !tbaa !9
  %5 = load ptr, ptr %3, align 8
  %6 = getelementptr inbounds nuw %class.b3AlignedObjectArray, ptr %5, i32 0, i32 4
  %7 = load ptr, ptr %6, align 8, !tbaa !54
  %8 = load i32, ptr %4, align 4, !tbaa !9
  %9 = sext i32 %8 to i64
  %10 = getelementptr inbounds %"struct.btInverseDynamicsBullet3::RigidBody", ptr %7, i64 %9
  ret ptr %10
}

; Function Attrs: mustprogress uwtable
define dso_local void @_ZN24btInverseDynamicsBullet313MultiBodyTree13MultiBodyImpl9printTreeEv(ptr noundef nonnull align 8 dereferenceable(400) %0) #2 align 2 {
  %2 = alloca ptr, align 8
  store ptr %0, ptr %2, align 8, !tbaa !12
  %3 = load ptr, ptr %2, align 8
  %4 = getelementptr inbounds nuw %"class.btInverseDynamicsBullet3::MultiBodyTree::MultiBodyImpl", ptr %3, i32 0, i32 3
  %5 = call noundef nonnull align 8 dereferenceable(816) ptr @_ZN20b3AlignedObjectArrayIN24btInverseDynamicsBullet39RigidBodyEEixEi(ptr noundef nonnull align 8 dereferenceable(25) %4, i32 noundef 0)
  %6 = getelementptr inbounds nuw %"struct.btInverseDynamicsBullet3::RigidBody", ptr %5, i32 0, i32 21
  %7 = call noundef ptr @_ZNK24btInverseDynamicsBullet313MultiBodyTree13MultiBodyImpl17jointTypeToStringERKNS_9JointTypeE(ptr noundef nonnull align 8 dereferenceable(400) %3, ptr noundef nonnull align 4 dereferenceable(4) %6)
  call void (ptr, ...) @b3OutputPrintfVarArgsInternal(ptr noundef @.str.6, i32 noundef 0, ptr noundef %7)
  call void @_ZN24btInverseDynamicsBullet313MultiBodyTree13MultiBodyImpl9printTreeEii(ptr noundef nonnull align 8 dereferenceable(400) %3, i32 noundef 0, i32 noundef 0)
  ret void
}