; Function Attrs: mustprogress uwtable
define dso_local void @_ZN24btInverseDynamicsBullet313MultiBodyTree13MultiBodyImpl9printTreeEv(ptr noundef nonnull readonly align 8 captures(none) dereferenceable(400) %0) local_unnamed_addr #0 align 2 {
  %2 = getelementptr inbounds nuw i8, ptr %0, i64 40
  %3 = load ptr, ptr %2, align 8, !tbaa !34
  %4 = getelementptr inbounds nuw i8, ptr %3, i64 420
  %5 = load i32, ptr %4, align 4, !tbaa !87
  %6 = icmp ult i32 %5, 5
  br i1 %6, label %switch.lookup, label %_ZNK24btInverseDynamicsBullet313MultiBodyTree13MultiBodyImpl17jointTypeToStringERKNS_9JointTypeE.exit

switch.lookup:                                    ; preds = %1
  %7 = zext nneg i32 %5 to i64
  %switch.gep = getelementptr inbounds nuw [5 x ptr], ptr @switch.table._ZNK24btInverseDynamicsBullet313MultiBodyTree13MultiBodyImpl15getJointTypeStrEiPPKc, i64 0, i64 %7
  %switch.load = load ptr, ptr %switch.gep, align 8
  br label %_ZNK24btInverseDynamicsBullet313MultiBodyTree13MultiBodyImpl17jointTypeToStringERKNS_9JointTypeE.exit

_ZNK24btInverseDynamicsBullet313MultiBodyTree13MultiBodyImpl17jointTypeToStringERKNS_9JointTypeE.exit: ; preds = %1, %switch.lookup
  %.0.i = phi ptr [ %switch.load, %switch.lookup ], [ @.str.5, %1 ]
  tail call void (ptr, ...) @b3OutputPrintfVarArgsInternal(ptr noundef nonnull @.str.6, i32 noundef 0, ptr noundef nonnull %.0.i)
  tail call void @_ZN24btInverseDynamicsBullet313MultiBodyTree13MultiBodyImpl9printTreeEii(ptr noundef nonnull align 8 dereferenceable(400) %0, i32 noundef 0, i32 noundef 0)
  ret void
}